; Function Attrs: nounwind uwtable
define void @PQcancelReset(ptr noundef %0) local_unnamed_addr #0 {
  tail call void @pqClosePGconn(ptr noundef %0) #16
  %2 = getelementptr inbounds nuw i8, ptr %0, i64 416
  store i32 14, ptr %2, align 8
  %3 = getelementptr inbounds nuw i8, ptr %0, i64 476
  store i32 0, ptr %3, align 4
  %4 = getelementptr inbounds nuw i8, ptr %0, i64 884
  store i32 0, ptr %4, align 4
  %5 = getelementptr inbounds nuw i8, ptr %0, i64 877
  store i8 0, ptr %5, align 1
  %6 = getelementptr inbounds nuw i8, ptr %0, i64 876
  store i8 0, ptr %6, align 4
  ret void
}